; Function Attrs: mustprogress uwtable
define noundef nonnull align 8 dereferenceable(64) ptr @_ZNK6icu_7714TimeZoneFormat18getGMTOffsetDigitsERNS_13UnicodeStringE(ptr noundef nonnull readonly align 8 captures(none) dereferenceable(1024) %0, ptr noundef nonnull returned align 8 dereferenceable(64) %1) local_unnamed_addr #1 align 2 {
  %3 = getelementptr inbounds nuw i8, ptr %1, i64 8
  %4 = load i16, ptr %3, align 8, !tbaa !23
  %5 = and i16 %4, 1
  %.not.i = icmp eq i16 %5, 0
  %6 = and i16 %4, 30
  %storemerge.i = select i1 %.not.i, i16 %6, i16 2
  store i16 %storemerge.i, ptr %3, align 8, !tbaa !23
  %7 = getelementptr inbounds nuw i8, ptr %0, i64 720
  br label %9

8:                                                ; preds = %9
  ret ptr %1

9:                                                ; preds = %2, %9
  %indvars.iv = phi i64 [ 0, %2 ], [ %indvars.iv.next, %9 ]
  %10 = getelementptr inbounds nuw [10 x i32], ptr %7, i64 0, i64 %indvars.iv
  %11 = load i32, ptr %10, align 4, !tbaa !12
  %12 = tail call noundef nonnull align 8 dereferenceable(64) ptr @_ZN6icu_7713UnicodeString6appendEi(ptr noundef nonnull align 8 dereferenceable(64) %1, i32 noundef %11)
  %indvars.iv.next = add nuw nsw i64 %indvars.iv, 1
  %exitcond.not = icmp eq i64 %indvars.iv.next, 10
  br i1 %exitcond.not, label %8, label %9, !llvm.loop !60
}